(dp0
S'freq_dist'
p1
cnltk.probability
FreqDist
p2
((dp3
S'represent'
p4
I1
sS'lasted'
p5
I1
sS'rye'
p6
I1
sS'enjoyable'
p7
I1
sS'looks'
p8
I1
sS'advertised'
p9
I1
sS'flavor'
p10
I2
sS'feeding'
p11
I1
sS'yummy'
p12
I3
sS'tv'
p13
I1
sS'cherry'
p14
I1
sS'grass'
p15
I1
sS'actually'
p16
I1
sS'better'
p17
I2
sS'melon'
p18
I1
sS'peanuts'
p19
I1
sS'weeks'
p20
I1
sS'ingredient'
p21
I1
sS'complaint'
p22
I1
sS'good'
p23
I8
sS'vendor'
p24
I1
sS'around'
p25
I2
sS'watching'
p26
I1
sS'food'
p27
I4
sS'baggie'
p28
I1
sS'watermelon'
p29
I1
sS'sprouting'
p30
I1
sS'bit'
p31
I1
sS'securely'
p32
I1
sS'meat'
p33
I1
sS'rotate'
p34
I1
sS'like'
p35
I2
sS'pounds'
p36
I1
sS'licoriceflavored'
p37
I1
sS'sized'
p38
I1
sS'bag'
p39
I1
sS'delightful'
p40
I1
sS'processed'
p41
I1
sS'small'
p42
I2
sS'found'
p43
I2
sS'soft'
p44
I1
sS'husband'
p45
I1
sS'taffy'
p46
I10
sS'deal'
p47
I1
sS'hair'
p48
I1
sS'many'
p49
I1
sS'extract'
p50
I1
sS'packed'
p51
I1
sS'satisfying'
p52
I1
sS'strawberry'
p53
I2
sS'looking'
p54
I2
sS'chewy'
p55
I1
sS'barley'
p56
I1
sS'medicine'
p57
I1
sS'got'
p58
I2
sS'bought'
p59
I1
sS'eating'
p60
I2
sS'lover'
p61
I1
sS'five'
p62
I1
sS'quick'
p63
I1
sS'stew'
p64
I1
sS'medicinal'
p65
I1
sS'grape'
p66
I1
sS'cough'
p67
I1
sS'finicky'
p68
I1
sS'greasy'
p69
I1
sS'every'
p70
I1
sS'great'
p71
I3
sS'kids'
p72
I1
sS'would'
p73
I2
sS'healthy'
p74
I2
sS'peanutsthe'
p75
I1
sS'guilty'
p76
I1
sS'robitussin'
p77
I1
sS'etc'
p78
I1
sS'amount'
p79
I1
sS'products'
p80
I1
sS'soda'
p81
I1
sS'puppies'
p82
I1
sS'digestion'
p83
I1
sS'love'
p84
I3
sS'unsalted'
p85
I1
sS'sweet'
p86
I1
sS'beer'
p87
I2
sS'son'
p88
I1
sS'right'
p89
I1
sS'delicious'
p90
I1
sS'quality'
p91
I2
sS'smells'
p92
I1
sS'labrador'
p93
I1
sS'flavors'
p94
I2
sS'yay'
p95
I1
sS'zip'
p96
I1
sS'addition'
p97
I1
sS'transfer'
p98
I1
sS'two'
p99
I1
sS'secret'
p100
I1
sS'much'
p101
I1
sS'treat'
p102
I1
sS'recommend'
p103
I2
sS'mostly'
p104
I1
sS'appreciates'
p105
I1
sS'vitality'
p106
I1
sS'delivery'
p107
I1
sS'particular'
p108
I1
sS'believe'
p109
I1
sS'eat'
p110
I1
sS'buying'
p111
I1
sS'wide'
p112
I1
sS'made'
p113
I1
sS'peppermint'
p114
I1
sS'movies'
p115
I1
sS'labeled'
p116
I1
sS'error'
p117
I1
sS'jumbo'
p118
I2
sS'cats'
p119
I1
sS'wheatgrass'
p120
I1
sS'root'
p121
I2
sS'pound'
p122
I1
sS'ordered'
p123
I2
sS'salted'
p124
I1
sS'taste'
p125
I1
sS'lock'
p126
I1
sS'im'
p127
I1
sS'dog'
p128
I5
sS'tasty'
p129
I1
sS'wonderful'
p130
I1
sS'redblack'
p131
I1
sS'wild'
p132
I1
sS'six'
p133
I1
sS'also'
p134
I1
sS'amazing'
p135
I1
sS'take'
p136
I1
sS'several'
p137
I1
sS'brand'
p138
I1
sS'nice'
p139
I1
sS'poor'
p140
I1
sS'product'
p141
I4
sS'sure'
p142
I1
sS'intended'
p143
I1
sS'price'
p144
I1
sS'pieces'
p145
I1
sS'stay'
p146
I1
sS'arrived'
p147
I1
sS'favorites'
p148
I1
sS'fresh'
p149
I3
sS'assortment'
p150
I1
sS'twizzlers'
p151
I3
sS'canned'
p152
I1
sS'required'
p153
I1
sS'eats'
p154
I1
sS'definitely'
p155
I1
sS'time'
p156
I1
sS'pleasure'
p157
I1
sS'came'
p158
I1
stp159
Rp160
sS'limit'
p161
(dp162
S'minreview'
p163
I0
sS'maxreview'
p164
I500
sS'maxsummary'
p165
I30
sS'minsummary'
p166
I3
ssS'w2idx'
p167
(dp168
g4
I32
sg5
I152
sg6
I135
sg7
I35
sg8
I36
sg9
I37
sg10
I12
sg11
I38
sg12
I7
sg13
I40
sg14
I41
sg15
I126
sg16
I42
sg17
I13
sg18
I43
sg19
I44
sg20
I45
sg21
I46
sg22
I47
sg23
I3
sg24
I48
sg25
I14
sg26
I49
sg27
I5
sg28
I50
sg29
I51
sg30
I136
sg31
I52
sg32
I54
sg35
I16
sg34
I55
sg33
I56
sg36
I57
sg37
I58
sg38
I59
sg39
I60
sg40
I61
sg41
I62
sg63
I77
sg43
I18
sg44
I63
sg45
I64
sg46
I2
sg47
I65
sg100
I106
sg48
I66
sg49
I151
sg50
I67
sg51
I68
sg52
I69
sg53
I28
sg54
I19
sg55
I71
sg56
I72
sg57
I73
sg58
I20
sg59
I74
sg60
I21
sg61
I123
sg62
I155
sg42
I17
sg64
I78
sg65
I125
sg66
I79
sg67
I81
sg68
I82
sS'_'
p169
I0
sg69
I83
sg70
I84
sg71
I8
sg72
I85
sg96
I86
sg74
I22
sg75
I87
sg76
I88
sg77
I89
sg78
I90
sg79
I91
sg80
I92
sg81
I93
sg82
I94
sS'unk'
p170
I1
sg83
I95
sg84
I9
sg85
I96
sg86
I97
sg88
I31
sg89
I99
sg90
I100
sg91
I23
sg92
I101
sg93
I128
sg94
I24
sg95
I103
sg73
I25
sg97
I104
sg98
I105
sg99
I98
sg87
I26
sg101
I107
sg102
I108
sg103
I27
sg104
I109
sg105
I111
sg106
I112
sg107
I114
sg108
I115
sg132
I124
sg109
I116
sg110
I117
sg111
I118
sg112
I119
sg113
I120
sg114
I121
sg115
I70
sg116
I122
sg117
I76
sg118
I15
sg119
I110
sg120
I75
sg121
I29
sg122
I127
sg123
I30
sg124
I102
sg125
I129
sg126
I130
sg127
I132
sg128
I4
sg129
I80
sg130
I133
sg131
I134
sg151
I10
sg133
I33
sg134
I39
sg135
I137
sg136
I138
sg137
I139
sg138
I140
sg139
I141
sg140
I142
sg141
I6
sg142
I143
sg143
I144
sg144
I145
sg145
I131
sg146
I146
sg147
I147
sg148
I148
sg149
I11
sg150
I149
sg152
I150
sg153
I113
sg154
I53
sg155
I153
sg156
I154
sg157
I34
sg158
I156
ssS'idx2w'
p171
(lp172
g169
ag170
ag46
ag23
ag128
ag27
ag141
ag12
ag71
ag84
ag151
ag149
ag10
ag17
ag25
ag118
ag35
ag42
ag43
ag54
ag58
ag60
ag74
ag91
ag94
ag73
ag87
ag103
ag53
ag121
ag123
ag88
ag4
ag133
ag157
ag7
ag8
ag9
ag11
ag134
ag13
ag14
ag16
ag18
ag19
ag20
ag21
ag22
ag24
ag26
ag28
ag29
ag31
ag154
ag32
ag34
ag33
ag36
ag37
ag38
ag39
ag40
ag41
ag44
ag45
ag47
ag48
ag50
ag51
ag52
ag115
ag55
ag56
ag57
ag59
ag120
ag117
ag63
ag64
ag66
ag129
ag67
ag68
ag69
ag70
ag72
ag96
ag75
ag76
ag77
ag78
ag79
ag80
ag81
ag82
ag83
ag85
ag86
ag99
ag89
ag90
ag92
ag124
ag95
ag97
ag98
ag100
ag101
ag102
ag104
ag119
ag105
ag106
ag153
ag107
ag108
ag109
ag110
ag111
ag112
ag113
ag114
ag116
ag61
ag132
ag65
ag15
ag122
ag93
ag125
ag126
ag145
ag127
ag130
ag131
ag6
ag30
ag135
ag136
ag137
ag138
ag139
ag140
ag142
ag143
ag144
ag146
ag147
ag148
ag150
ag152
ag49
ag5
ag155
ag156
ag62
ag158
as.